Certificate:
    Data:
        Version: 3 (0x2)
        Serial Number: 21 (0x15)
    Signature Algorithm: sha1WithRSAEncryption
        Issuer: C=US, ST=California, L=San Luis Obispo, CN=Saba/emailAddress=snramada@calpoly.edu
        Validity
            Not Before: Feb 20 04:23:39 2019 GMT
            Not After : Feb 20 04:23:39 2020 GMT
        Subject: C=US, ST=California, L=San Luis Obispo, CN=google.com/emailAddress=ramadandsaba@google.com
        Subject Public Key Info:
            Public Key Algorithm: rsaEncryption
                Public-Key: (1024 bit)
                Modulus:
                    00:ab:dc:ac:9d:18:5e:40:84:0b:11:3f:67:db:4f:
                    73:a8:36:59:14:f3:9b:6e:de:ab:a8:12:e9:d2:84:
                    60:b6:2e:1a:6a:00:52:41:a0:91:c9:c6:87:52:f7:
                    df:d8:b9:01:98:d0:38:3b:f6:27:86:60:9a:3d:06:
                    e3:16:68:9d:51:57:b2:3a:12:4c:ed:9f:66:d8:36:
                    08:0c:4a:d2:7d:02:66:8f:8b:0b:5d:b4:39:52:08:
                    8f:3c:17:3e:0f:df:34:30:b5:ee:af:0e:8d:e5:ce:
                    5d:1b:ad:3b:50:d0:2e:a9:92:c0:6c:95:1f:ef:ae:
                    45:fc:60:d0:11:07:83:0e:e1
                Exponent: 65537 (0x10001)
        X509v3 extensions:
            X509v3 Basic Constraints: 
                CA:FALSE
            Netscape Comment: 
                OpenSSL Generated Certificate
            X509v3 Subject Key Identifier: 
                54:28:78:57:F0:77:38:78:1E:D4:D6:22:36:09:58:DA:08:95:33:46
            X509v3 Authority Key Identifier: 
                keyid:6B:3B:07:54:15:FD:20:F9:E8:C7:C7:28:89:F7:6A:8C:AB:88:13:6D

    Signature Algorithm: sha1WithRSAEncryption
         30:01:1c:bd:c7:9e:fa:5c:d9:63:8c:af:e6:bf:0f:85:f7:f9:
         8f:c6:e1:c9:f6:26:5f:6e:56:80:13:f9:27:f2:75:ce:1d:bf:
         e5:a6:7b:93:c3:fb:14:14:8f:e5:47:a8:13:22:4f:53:21:12:
         cd:e7:c3:88:38:8d:a8:83:2f:58:54:b0:06:df:cb:87:c8:6d:
         e4:aa:2a:8c:9b:4d:58:e1:87:d3:c8:42:e2:6f:b0:da:f2:12:
         92:a8:d0:df:90:8f:63:3f:b6:00:26:ec:35:e1:d5:26:41:94:
         57:1f:c6:d3:61:5d:91:6a:af:e5:82:ae:da:55:0e:50:33:84:
         32:51
-----BEGIN CERTIFICATE-----
MIIC2jCCAkOgAwIBAgIBFTANBgkqhkiG9w0BAQUFADBwMQswCQYDVQQGEwJVUzET
MBEGA1UECBMKQ2FsaWZvcm5pYTEYMBYGA1UEBxMPU2FuIEx1aXMgT2Jpc3BvMQ0w
CwYDVQQDEwRTYWJhMSMwIQYJKoZIhvcNAQkBFhRzbnJhbWFkYUBjYWxwb2x5LmVk
dTAeFw0xOTAyMjAwNDIzMzlaFw0yMDAyMjAwNDIzMzlaMHkxCzAJBgNVBAYTAlVT
MRMwEQYDVQQIEwpDYWxpZm9ybmlhMRgwFgYDVQQHEw9TYW4gTHVpcyBPYmlzcG8x
EzARBgNVBAMTCmdvb2dsZS5jb20xJjAkBgkqhkiG9w0BCQEWF3JhbWFkYW5kc2Fi
YUBnb29nbGUuY29tMIGfMA0GCSqGSIb3DQEBAQUAA4GNADCBiQKBgQCr3KydGF5A
hAsRP2fbT3OoNlkU85tu3quoEunShGC2LhpqAFJBoJHJxodS99/YuQGY0Dg79ieG
YJo9BuMWaJ1RV7I6Ekztn2bYNggMStJ9AmaPiwtdtDlSCI88Fz4P3zQwte6vDo3l
zl0brTtQ0C6pksBslR/vrkX8YNARB4MO4QIDAQABo3sweTAJBgNVHRMEAjAAMCwG
CWCGSAGG+EIBDQQfFh1PcGVuU1NMIEdlbmVyYXRlZCBDZXJ0aWZpY2F0ZTAdBgNV
HQ4EFgQUVCh4V/B3OHge1NYiNglY2giVM0YwHwYDVR0jBBgwFoAUazsHVBX9IPno
x8coifdqjKuIE20wDQYJKoZIhvcNAQEFBQADgYEAMAEcvcee+lzZY4yv5r8Phff5
j8bhyfYmX25WgBP5J/J1zh2/5aZ7k8P7FBSP5UeoEyJPUyESzefDiDiNqIMvWFSw
Bt/Lh8ht5KoqjJtNWOGH08hC4m+w2vISkqjQ35CPYz+2ACbsNeHVJkGUVx/G02Fd
kWqv5YKu2lUOUDOEMlE=
-----END CERTIFICATE-----
